target datalayout = "e-m:e-p270:32:32-p271:32:32-p272:64:64-i64:64-i128:128-f80:128-n8:16:32:64-S128"
target triple = "x86_64-pc-linux-gnu"

; Function Attrs: nounwind uwtable
define void @copy_vectorf(i32 noundef %0, ptr noundef %1, ptr noundef %2) #0 {
  %4 = alloca i32, align 4
  %5 = alloca ptr, align 8
  %6 = alloca ptr, align 8
  %7 = alloca i32, align 4
  store i32 %0, ptr %4, align 4, !tbaa !8
  store ptr %1, ptr %5, align 8, !tbaa !40
  store ptr %2, ptr %6, align 8, !tbaa !40
  call void @llvm.lifetime.start.p0(i64 4, ptr %7) #8
  store i32 0, ptr %7, align 4, !tbaa !8
  br label %8

8:                                                ; preds = %22, %3
  %9 = load i32, ptr %7, align 4, !tbaa !8
  %10 = load i32, ptr %4, align 4, !tbaa !8
  %11 = icmp slt i32 %9, %10
  br i1 %11, label %12, label %25

12:                                               ; preds = %8
  %13 = load ptr, ptr %5, align 8, !tbaa !40
  %14 = load i32, ptr %7, align 4, !tbaa !8
  %15 = sext i32 %14 to i64
  %16 = getelementptr inbounds float, ptr %13, i64 %15
  %17 = load float, ptr %16, align 4, !tbaa !43
  %18 = load ptr, ptr %6, align 8, !tbaa !40
  %19 = load i32, ptr %7, align 4, !tbaa !8
  %20 = sext i32 %19 to i64
  %21 = getelementptr inbounds float, ptr %18, i64 %20
  store float %17, ptr %21, align 4, !tbaa !43
  br label %22

22:                                               ; preds = %12
  %23 = load i32, ptr %7, align 4, !tbaa !8
  %24 = add nsw i32 %23, 1
  store i32 %24, ptr %7, align 4, !tbaa !8
  br label %8, !llvm.loop !84

25:                                               ; preds = %8
  call void @llvm.lifetime.end.p0(i64 4, ptr %7) #8
  ret void
}